target datalayout = "e-m:e-p270:32:32-p271:32:32-p272:64:64-i64:64-i128:128-f80:128-n8:16:32:64-S128"
target triple = "x86_64-pc-linux-gnu"

%struct.redisObject = type { i32, i32, ptr }
%struct.dict = type { ptr, [2 x ptr], [2 x i64], i64, i16, [2 x i8], i16, [0 x ptr] }

@.str.1 = private unnamed_addr constant [8 x i8] c"t_set.c\00", align 1
@.str.3 = private unnamed_addr constant [21 x i8] c"Unknown set encoding\00", align 1

; Function Attrs: nounwind uwtable
define dso_local i64 @setTypeSize(ptr noundef %0) #0 {
  %2 = alloca i64, align 8
  %3 = alloca ptr, align 8
  store ptr %0, ptr %3, align 8, !tbaa !41
  %4 = load ptr, ptr %3, align 8, !tbaa !41
  %5 = load i32, ptr %4, align 8
  %6 = lshr i32 %5, 4
  %7 = and i32 %6, 15
  %8 = icmp eq i32 %7, 2
  br i1 %8, label %9, label %23

9:                                                ; preds = %1
  %10 = load ptr, ptr %3, align 8, !tbaa !41
  %11 = getelementptr inbounds nuw %struct.redisObject, ptr %10, i32 0, i32 2
  %12 = load ptr, ptr %11, align 8, !tbaa !43
  %13 = getelementptr inbounds nuw %struct.dict, ptr %12, i32 0, i32 2
  %14 = getelementptr inbounds [2 x i64], ptr %13, i64 0, i64 0
  %15 = load i64, ptr %14, align 8, !tbaa !10
  %16 = load ptr, ptr %3, align 8, !tbaa !41
  %17 = getelementptr inbounds nuw %struct.redisObject, ptr %16, i32 0, i32 2
  %18 = load ptr, ptr %17, align 8, !tbaa !43
  %19 = getelementptr inbounds nuw %struct.dict, ptr %18, i32 0, i32 2
  %20 = getelementptr inbounds [2 x i64], ptr %19, i64 0, i64 1
  %21 = load i64, ptr %20, align 8, !tbaa !10
  %22 = add i64 %15, %21
  store i64 %22, ptr %2, align 8
  br label %47

23:                                               ; preds = %1
  %24 = load ptr, ptr %3, align 8, !tbaa !41
  %25 = load i32, ptr %24, align 8
  %26 = lshr i32 %25, 4
  %27 = and i32 %26, 15
  %28 = icmp eq i32 %27, 6
  br i1 %28, label %29, label %35

29:                                               ; preds = %23
  %30 = load ptr, ptr %3, align 8, !tbaa !41
  %31 = getelementptr inbounds nuw %struct.redisObject, ptr %30, i32 0, i32 2
  %32 = load ptr, ptr %31, align 8, !tbaa !43
  %33 = call i32 @intsetLen(ptr noundef %32)
  %34 = zext i32 %33 to i64
  store i64 %34, ptr %2, align 8
  br label %47

35:                                               ; preds = %23
  %36 = load ptr, ptr %3, align 8, !tbaa !41
  %37 = load i32, ptr %36, align 8
  %38 = lshr i32 %37, 4
  %39 = and i32 %38, 15
  %40 = icmp eq i32 %39, 11
  br i1 %40, label %41, label %46

41:                                               ; preds = %35
  %42 = load ptr, ptr %3, align 8, !tbaa !41
  %43 = getelementptr inbounds nuw %struct.redisObject, ptr %42, i32 0, i32 2
  %44 = load ptr, ptr %43, align 8, !tbaa !43
  %45 = call i64 @lpLength(ptr noundef %44)
  store i64 %45, ptr %2, align 8
  br label %47

46:                                               ; preds = %35
  call void (ptr, i32, ptr, ...) @_serverPanic(ptr noundef @.str.1, i32 noundef 471, ptr noundef @.str.3)
  call void @abort() #11
  unreachable

47:                                               ; preds = %41, %29, %9
  %48 = load i64, ptr %2, align 8
  ret i64 %48
}

; Function Attrs: nounwind uwtable
define dso_local i32 @qsortCompareSetsByRevCardinality(ptr noundef %0, ptr noundef %1) #0 {
  %3 = alloca i32, align 4
  %4 = alloca ptr, align 8
  %5 = alloca ptr, align 8
  %6 = alloca ptr, align 8
  %7 = alloca ptr, align 8
  %8 = alloca i64, align 8
  %9 = alloca i64, align 8
  %10 = alloca i32, align 4
  store ptr %0, ptr %4, align 8, !tbaa !47
  store ptr %1, ptr %5, align 8, !tbaa !47
  call void @llvm.lifetime.start.p0(i64 8, ptr %6) #10
  %11 = load ptr, ptr %4, align 8, !tbaa !47
  %12 = load ptr, ptr %11, align 8, !tbaa !41
  store ptr %12, ptr %6, align 8, !tbaa !41
  call void @llvm.lifetime.start.p0(i64 8, ptr %7) #10
  %13 = load ptr, ptr %5, align 8, !tbaa !47
  %14 = load ptr, ptr %13, align 8, !tbaa !41
  store ptr %14, ptr %7, align 8, !tbaa !41
  call void @llvm.lifetime.start.p0(i64 8, ptr %8) #10
  %15 = load ptr, ptr %6, align 8, !tbaa !41
  %16 = icmp ne ptr %15, null
  br i1 %16, label %17, label %20

17:                                               ; preds = %2
  %18 = load ptr, ptr %6, align 8, !tbaa !41
  %19 = call i64 @setTypeSize(ptr noundef %18)
  br label %21

20:                                               ; preds = %2
  br label %21

21:                                               ; preds = %20, %17
  %22 = phi i64 [ %19, %17 ], [ 0, %20 ]
  store i64 %22, ptr %8, align 8, !tbaa !10
  call void @llvm.lifetime.start.p0(i64 8, ptr %9) #10
  %23 = load ptr, ptr %7, align 8, !tbaa !41
  %24 = icmp ne ptr %23, null
  br i1 %24, label %25, label %28

25:                                               ; preds = %21
  %26 = load ptr, ptr %7, align 8, !tbaa !41
  %27 = call i64 @setTypeSize(ptr noundef %26)
  br label %29

28:                                               ; preds = %21
  br label %29

29:                                               ; preds = %28, %25
  %30 = phi i64 [ %27, %25 ], [ 0, %28 ]
  store i64 %30, ptr %9, align 8, !tbaa !10
  %31 = load i64, ptr %8, align 8, !tbaa !10
  %32 = load i64, ptr %9, align 8, !tbaa !10
  %33 = icmp ult i64 %31, %32
  br i1 %33, label %34, label %35

34:                                               ; preds = %29
  store i32 1, ptr %3, align 4
  store i32 1, ptr %10, align 4
  br label %41

35:                                               ; preds = %29
  %36 = load i64, ptr %8, align 8, !tbaa !10
  %37 = load i64, ptr %9, align 8, !tbaa !10
  %38 = icmp ugt i64 %36, %37
  br i1 %38, label %39, label %40

39:                                               ; preds = %35
  store i32 -1, ptr %3, align 4
  store i32 1, ptr %10, align 4
  br label %41

40:                                               ; preds = %35
  store i32 0, ptr %3, align 4
  store i32 1, ptr %10, align 4
  br label %41

41:                                               ; preds = %40, %39, %34
  call void @llvm.lifetime.end.p0(i64 8, ptr %9) #10
  call void @llvm.lifetime.end.p0(i64 8, ptr %8) #10
  call void @llvm.lifetime.end.p0(i64 8, ptr %7) #10
  call void @llvm.lifetime.end.p0(i64 8, ptr %6) #10
  %42 = load i32, ptr %3, align 4
  ret i32 %42
}