; Function Attrs: nounwind uwtable
define dso_local range(i32 -1, 2) i32 @qsortCompareSetsByRevCardinality(ptr noundef readonly captures(none) %0, ptr noundef readonly captures(none) %1) #0 {
  %3 = load ptr, ptr %0, align 8, !tbaa !73
  %4 = load ptr, ptr %1, align 8, !tbaa !73
  %.not = icmp eq ptr %3, null
  br i1 %.not, label %setTypeSize.exit, label %5

5:                                                ; preds = %2
  %6 = load i32, ptr %3, align 8
  %7 = lshr i32 %6, 4
  %8 = and i32 %7, 15
  switch i32 %8, label %26 [
    i32 2, label %9
    i32 6, label %17
    i32 11, label %22
  ]

9:                                                ; preds = %5
  %10 = getelementptr inbounds nuw i8, ptr %3, i64 8
  %11 = load ptr, ptr %10, align 8, !tbaa !38
  %12 = getelementptr inbounds nuw i8, ptr %11, i64 24
  %13 = load i64, ptr %12, align 8, !tbaa !50
  %14 = getelementptr inbounds nuw i8, ptr %11, i64 32
  %15 = load i64, ptr %14, align 8, !tbaa !50
  %16 = add i64 %15, %13
  br label %setTypeSize.exit

17:                                               ; preds = %5
  %18 = getelementptr inbounds nuw i8, ptr %3, i64 8
  %19 = load ptr, ptr %18, align 8, !tbaa !38
  %20 = tail call i32 @intsetLen(ptr noundef %19) #10
  %21 = zext i32 %20 to i64
  br label %setTypeSize.exit

22:                                               ; preds = %5
  %23 = getelementptr inbounds nuw i8, ptr %3, i64 8
  %24 = load ptr, ptr %23, align 8, !tbaa !38
  %25 = tail call i64 @lpLength(ptr noundef %24) #10
  br label %setTypeSize.exit

26:                                               ; preds = %5
  tail call void (ptr, i32, ptr, ...) @_serverPanic(ptr noundef nonnull @.str.1, i32 noundef 471, ptr noundef nonnull @.str.3) #10
  tail call void @abort() #11
  unreachable

setTypeSize.exit:                                 ; preds = %22, %17, %9, %2
  %27 = phi i64 [ 0, %2 ], [ %16, %9 ], [ %21, %17 ], [ %25, %22 ]
  %.not14 = icmp eq ptr %4, null
  br i1 %.not14, label %setTypeSize.exit16, label %28

28:                                               ; preds = %setTypeSize.exit
  %29 = load i32, ptr %4, align 8
  %30 = lshr i32 %29, 4
  %31 = and i32 %30, 15
  switch i32 %31, label %49 [
    i32 2, label %32
    i32 6, label %40
    i32 11, label %45
  ]

32:                                               ; preds = %28
  %33 = getelementptr inbounds nuw i8, ptr %4, i64 8
  %34 = load ptr, ptr %33, align 8, !tbaa !38
  %35 = getelementptr inbounds nuw i8, ptr %34, i64 24
  %36 = load i64, ptr %35, align 8, !tbaa !50
  %37 = getelementptr inbounds nuw i8, ptr %34, i64 32
  %38 = load i64, ptr %37, align 8, !tbaa !50
  %39 = add i64 %38, %36
  br label %setTypeSize.exit16

40:                                               ; preds = %28
  %41 = getelementptr inbounds nuw i8, ptr %4, i64 8
  %42 = load ptr, ptr %41, align 8, !tbaa !38
  %43 = tail call i32 @intsetLen(ptr noundef %42) #10
  %44 = zext i32 %43 to i64
  br label %setTypeSize.exit16

45:                                               ; preds = %28
  %46 = getelementptr inbounds nuw i8, ptr %4, i64 8
  %47 = load ptr, ptr %46, align 8, !tbaa !38
  %48 = tail call i64 @lpLength(ptr noundef %47) #10
  br label %setTypeSize.exit16

49:                                               ; preds = %28
  tail call void (ptr, i32, ptr, ...) @_serverPanic(ptr noundef nonnull @.str.1, i32 noundef 471, ptr noundef nonnull @.str.3) #10
  tail call void @abort() #11
  unreachable

setTypeSize.exit16:                               ; preds = %45, %40, %32, %setTypeSize.exit
  %50 = phi i64 [ 0, %setTypeSize.exit ], [ %39, %32 ], [ %44, %40 ], [ %48, %45 ]
  %.0 = tail call i32 @llvm.ucmp.i32.i64(i64 %50, i64 %27)
  ret i32 %.0
}